; Function Attrs: mustprogress uwtable
define hidden noundef nonnull ptr @ncnn_mat_create_3d_elem(i32 noundef %0, i32 noundef %1, i32 noundef %2, i64 noundef %3, i32 noundef %4, ptr noundef readonly %5) local_unnamed_addr #1 personality ptr @__gxx_personality_v0 {
  %7 = tail call noalias noundef nonnull dereferenceable(72) ptr @_Znwm(i64 noundef 72) #24
  %.not = icmp eq ptr %5, null
  br i1 %.not, label %10, label %8

8:                                                ; preds = %6
  %9 = load ptr, ptr %5, align 8
  br label %10

10:                                               ; preds = %6, %8
  %11 = phi ptr [ %9, %8 ], [ null, %6 ]
  %12 = getelementptr inbounds nuw i8, ptr %7, i64 32
  %13 = getelementptr inbounds nuw i8, ptr %7, i64 64
  store i64 0, ptr %13, align 8
  tail call void @llvm.memset.p0.i64(ptr noundef nonnull align 8 dereferenceable(28) %7, i8 0, i64 28, i1 false)
  tail call void @llvm.memset.p0.i64(ptr noundef nonnull align 8 dereferenceable(28) %12, i8 0, i64 28, i1 false)
  invoke void @_ZN4ncnn3Mat6createEiiimiPNS_9AllocatorE(ptr noundef nonnull align 8 dereferenceable(72) %7, i32 noundef %0, i32 noundef %1, i32 noundef %2, i64 noundef %3, i32 noundef %4, ptr noundef %11)
          to label %14 unwind label %15

14:                                               ; preds = %10
  ret ptr %7

15:                                               ; preds = %10
  %16 = landingpad { ptr, i32 }
          cleanup
  tail call void @_ZdlPvm(ptr noundef nonnull %7, i64 noundef 72) #25
  resume { ptr, i32 } %16
}